(lp0
(S'cppflags'
p1
ccopy_reg
_reconstructor
p2
(cino.utils
SpaceList
p3
c__builtin__
list
p4
(lp5
S'-mmcu=atmega328p'
p6
aS'-DF_CPU=16000000L'
p7
aS'-DARDUINO=105'
p8
aS'-I/usr/share/arduino/hardware/arduino/cores/arduino'
p9
aS'-ffunction-sections'
p10
aS'-fdata-sections'
p11
aS'-g'
p12
aS'-Os'
p13
aS'-w'
p14
aS'-I/usr/share/arduino/hardware/arduino/variants/standard'
p15
aS'-I/usr/share/arduino/libraries/Ethernet'
p16
aS'-I/usr/share/arduino/libraries/Ethernet/utility'
p17
aS'-I/usr/share/arduino/libraries/Robot_Control'
p18
aS'-I/usr/share/arduino/libraries/Robot_Control/utility'
p19
aS'-I/usr/share/arduino/hardware/arduino/cores/arduino'
p20
aS'-I/usr/share/arduino/hardware/arduino/cores/arduino/avr-libc'
p21
atp22
Rp23
tp24
a(S'cxx'
p25
S'/usr/share/arduino/hardware/tools/avr/bin/avr-g++'
p26
tp27
a(S'version.txt'
p28
S'/usr/share/arduino/lib/version.txt'
p29
tp30
a(S'used_libs'
p31
(lp32
S'/usr/share/arduino/libraries/Ethernet'
p33
aS'/usr/share/arduino/libraries/Robot_Control'
p34
aS'/usr/share/arduino/hardware/arduino/cores/arduino'
p35
atp36
a(S'cc'
p37
S'/usr/share/arduino/hardware/tools/avr/bin/avr-gcc'
p38
tp39
a(S'make'
p40
S'/usr/share/arduino/hardware/tools/avr/bin/make'
p41
tp42
a(S'cflags'
p43
g2
(g3
g4
(lp44
tp45
Rp46
tp47
a(S'build_dir'
p48
S'.build/uno'
p49
tp50
a(S'arduino_core_dir'
p51
g35
tp52
a(S'boards.txt'
p53
(lp54
S'/usr/share/arduino/hardware/arduino/boards.txt'
p55
atp56
a(S'cxxflags'
p57
g2
(g3
g4
(lp58
S'-fno-exceptions'
p59
atp60
Rp61
tp62
a(S'arduino_variants_dir'
p63
S'/usr/share/arduino/hardware/arduino/variants'
p64
tp65
a(S'ar'
p66
S'/usr/share/arduino/hardware/tools/avr/bin/avr-ar'
p67
tp68
a(S'names'
p69
(dp70
S'cpp'
p71
S'%s.cpp'
p72
sS'obj'
p73
S'%s.o'
p74
sS'deps'
p75
S'%s.d'
p76
sS'lib'
p77
S'lib%s.a'
p78
stp79
a(S'deps'
p80
g2
(g3
g4
(lp81
S'.build/uno/src/dependencies.d'
p82
aS'.build/uno/arduino/dependencies.d'
p83
aS'.build/uno/Robot_Control/dependencies.d'
p84
aS'.build/uno/Ethernet/dependencies.d'
p85
atp86
Rp87
tp88
a(S'arduino_libraries_dir'
p89
S'/usr/share/arduino/libraries'
p90
tp91
a(S'arduino_lib_version'
p92
g2
(cino.environment
Version
p93
c__builtin__
tuple
p94
(I1
I0
I5
tp95
tp96
Rp97
tp98
a(S'objcopy'
p99
S'/usr/share/arduino/hardware/tools/avr/bin/avr-objcopy'
p100
tp101
a(S'board_models'
p102
cino.environment
BoardModels
p103
((lp104
(lp105
S'uno'
p106
a(dp107
S'_coredir'
p108
S'/usr/share/arduino/hardware/arduino'
p109
sS'bootloader'
p110
(dp111
S'extended_fuses'
p112
S'0x05'
p113
sS'high_fuses'
p114
S'0xde'
p115
sS'low_fuses'
p116
S'0xff'
p117
sS'lock_bits'
p118
S'0x0F'
p119
sS'file'
p120
S'optiboot_atmega328.hex'
p121
sS'path'
p122
S'optiboot'
p123
sS'unlock_bits'
p124
S'0x3F'
p125
ssS'build'
p126
(dp127
S'core'
p128
S'arduino'
p129
sS'mcu'
p130
S'atmega328p'
p131
sS'f_cpu'
p132
S'16000000L'
p133
sS'variant'
p134
S'standard'
p135
ssS'name'
p136
S'Arduino Uno'
p137
sS'upload'
p138
(dp139
S'protocol'
p140
S'arduino'
p141
sS'maximum_size'
p142
S'32256'
p143
sS'speed'
p144
S'115200'
p145
ssaa(lp146
S'atmega328'
p147
a(dp148
g108
S'/usr/share/arduino/hardware/arduino'
p149
sS'bootloader'
p150
(dp151
S'extended_fuses'
p152
S'0x05'
p153
sS'high_fuses'
p154
S'0xDA'
p155
sS'low_fuses'
p156
S'0xFF'
p157
sS'lock_bits'
p158
S'0x0F'
p159
sS'file'
p160
S'ATmegaBOOT_168_atmega328.hex'
p161
sS'path'
p162
S'atmega'
p163
sS'unlock_bits'
p164
S'0x3F'
p165
ssS'build'
p166
(dp167
S'core'
p168
S'arduino'
p169
sS'mcu'
p170
S'atmega328p'
p171
sS'f_cpu'
p172
S'16000000L'
p173
sS'variant'
p174
S'standard'
p175
ssS'name'
p176
S'Arduino Duemilanove w/ ATmega328'
p177
sS'upload'
p178
(dp179
S'protocol'
p180
S'arduino'
p181
sS'maximum_size'
p182
S'30720'
p183
sS'speed'
p184
S'57600'
p185
ssaa(lp186
S'diecimila'
p187
a(dp188
g108
S'/usr/share/arduino/hardware/arduino'
p189
sS'bootloader'
p190
(dp191
S'extended_fuses'
p192
S'0x00'
p193
sS'high_fuses'
p194
S'0xdd'
p195
sS'low_fuses'
p196
S'0xff'
p197
sS'lock_bits'
p198
S'0x0F'
p199
sS'file'
p200
S'ATmegaBOOT_168_diecimila.hex'
p201
sS'path'
p202
S'atmega'
p203
sS'unlock_bits'
p204
S'0x3F'
p205
ssS'build'
p206
(dp207
S'core'
p208
S'arduino'
p209
sS'mcu'
p210
S'atmega168'
p211
sS'f_cpu'
p212
S'16000000L'
p213
sS'variant'
p214
S'standard'
p215
ssS'name'
p216
S'Arduino Diecimila or Duemilanove w/ ATmega168'
p217
sS'upload'
p218
(dp219
S'protocol'
p220
S'arduino'
p221
sS'maximum_size'
p222
S'14336'
p223
sS'speed'
p224
S'19200'
p225
ssaa(lp226
S'nano328'
p227
a(dp228
g108
S'/usr/share/arduino/hardware/arduino'
p229
sS'bootloader'
p230
(dp231
S'extended_fuses'
p232
S'0x05'
p233
sS'high_fuses'
p234
S'0xDA'
p235
sS'low_fuses'
p236
S'0xFF'
p237
sS'lock_bits'
p238
S'0x0F'
p239
sS'file'
p240
S'ATmegaBOOT_168_atmega328.hex'
p241
sS'path'
p242
S'atmega'
p243
sS'unlock_bits'
p244
S'0x3F'
p245
ssS'build'
p246
(dp247
S'core'
p248
S'arduino'
p249
sS'mcu'
p250
S'atmega328p'
p251
sS'f_cpu'
p252
S'16000000L'
p253
sS'variant'
p254
S'eightanaloginputs'
p255
ssS'name'
p256
S'Arduino Nano w/ ATmega328'
p257
sS'upload'
p258
(dp259
S'protocol'
p260
S'arduino'
p261
sS'maximum_size'
p262
S'30720'
p263
sS'speed'
p264
S'57600'
p265
ssaa(lp266
S'nano'
p267
a(dp268
g108
S'/usr/share/arduino/hardware/arduino'
p269
sS'bootloader'
p270
(dp271
S'extended_fuses'
p272
S'0x00'
p273
sS'high_fuses'
p274
S'0xdd'
p275
sS'low_fuses'
p276
S'0xff'
p277
sS'lock_bits'
p278
S'0x0F'
p279
sS'file'
p280
S'ATmegaBOOT_168_diecimila.hex'
p281
sS'path'
p282
S'atmega'
p283
sS'unlock_bits'
p284
S'0x3F'
p285
ssS'build'
p286
(dp287
S'core'
p288
S'arduino'
p289
sS'mcu'
p290
S'atmega168'
p291
sS'f_cpu'
p292
S'16000000L'
p293
sS'variant'
p294
S'eightanaloginputs'
p295
ssS'name'
p296
S'Arduino Nano w/ ATmega168'
p297
sS'upload'
p298
(dp299
S'protocol'
p300
S'arduino'
p301
sS'maximum_size'
p302
S'14336'
p303
sS'speed'
p304
S'19200'
p305
ssaa(lp306
S'mega2560'
p307
a(dp308
g108
S'/usr/share/arduino/hardware/arduino'
p309
sS'bootloader'
p310
(dp311
S'extended_fuses'
p312
S'0xFD'
p313
sS'high_fuses'
p314
S'0xD8'
p315
sS'low_fuses'
p316
S'0xFF'
p317
sS'lock_bits'
p318
S'0x0F'
p319
sS'file'
p320
S'stk500boot_v2_mega2560.hex'
p321
sS'path'
p322
S'stk500v2'
p323
sS'unlock_bits'
p324
S'0x3F'
p325
ssS'build'
p326
(dp327
S'core'
p328
S'arduino'
p329
sS'mcu'
p330
S'atmega2560'
p331
sS'f_cpu'
p332
S'16000000L'
p333
sS'variant'
p334
S'mega'
p335
ssS'name'
p336
S'Arduino Mega 2560 or Mega ADK'
p337
sS'upload'
p338
(dp339
S'protocol'
p340
S'wiring'
p341
sS'maximum_size'
p342
S'258048'
p343
sS'speed'
p344
S'115200'
p345
ssaa(lp346
S'mega'
p347
a(dp348
g108
S'/usr/share/arduino/hardware/arduino'
p349
sS'bootloader'
p350
(dp351
S'extended_fuses'
p352
S'0xF5'
p353
sS'high_fuses'
p354
S'0xDA'
p355
sS'low_fuses'
p356
S'0xFF'
p357
sS'lock_bits'
p358
S'0x0F'
p359
sS'file'
p360
S'ATmegaBOOT_168_atmega1280.hex'
p361
sS'path'
p362
S'atmega'
p363
sS'unlock_bits'
p364
S'0x3F'
p365
ssS'build'
p366
(dp367
S'core'
p368
S'arduino'
p369
sS'mcu'
p370
S'atmega1280'
p371
sS'f_cpu'
p372
S'16000000L'
p373
sS'variant'
p374
S'mega'
p375
ssS'name'
p376
S'Arduino Mega (ATmega1280)'
p377
sS'upload'
p378
(dp379
S'protocol'
p380
S'arduino'
p381
sS'maximum_size'
p382
S'126976'
p383
sS'speed'
p384
S'57600'
p385
ssaa(lp386
S'leonardo'
p387
a(dp388
g108
S'/usr/share/arduino/hardware/arduino'
p389
sS'bootloader'
p390
(dp391
S'extended_fuses'
p392
S'0xcb'
p393
sS'high_fuses'
p394
S'0xd8'
p395
sS'low_fuses'
p396
S'0xff'
p397
sS'lock_bits'
p398
S'0x2F'
p399
sS'file'
p400
S'Caterina-Leonardo.hex'
p401
sS'path'
p402
S'caterina'
p403
sS'unlock_bits'
p404
S'0x3F'
p405
ssS'build'
p406
(dp407
S'core'
p408
S'arduino'
p409
sS'f_cpu'
p410
S'16000000L'
p411
sS'vid'
p412
S'0x2341'
p413
sS'pid'
p414
S'0x8036'
p415
sS'variant'
p416
S'leonardo'
p417
sS'mcu'
p418
S'atmega32u4'
p419
ssS'name'
p420
S'Arduino Leonardo'
p421
sS'upload'
p422
(dp423
S'protocol'
p424
S'avr109'
p425
sS'maximum_size'
p426
S'28672'
p427
sS'speed'
p428
S'57600'
p429
sS'disable_flushing'
p430
S'true'
p431
ssaa(lp432
S'esplora'
p433
a(dp434
g108
S'/usr/share/arduino/hardware/arduino'
p435
sS'bootloader'
p436
(dp437
S'extended_fuses'
p438
S'0xcb'
p439
sS'high_fuses'
p440
S'0xd8'
p441
sS'low_fuses'
p442
S'0xff'
p443
sS'lock_bits'
p444
S'0x2F'
p445
sS'file'
p446
S'Caterina-Esplora.hex'
p447
sS'path'
p448
S'caterina'
p449
sS'unlock_bits'
p450
S'0x3F'
p451
ssS'build'
p452
(dp453
S'core'
p454
S'arduino'
p455
sS'f_cpu'
p456
S'16000000L'
p457
sS'vid'
p458
S'0x2341'
p459
sS'pid'
p460
S'0x803C'
p461
sS'variant'
p462
S'leonardo'
p463
sS'mcu'
p464
S'atmega32u4'
p465
ssS'name'
p466
S'Arduino Esplora'
p467
sS'upload'
p468
(dp469
S'protocol'
p470
S'avr109'
p471
sS'maximum_size'
p472
S'28672'
p473
sS'speed'
p474
S'57600'
p475
sS'disable_flushing'
p476
S'true'
p477
ssaa(lp478
S'micro'
p479
a(dp480
g108
S'/usr/share/arduino/hardware/arduino'
p481
sS'bootloader'
p482
(dp483
S'extended_fuses'
p484
S'0xcb'
p485
sS'high_fuses'
p486
S'0xd8'
p487
sS'low_fuses'
p488
S'0xff'
p489
sS'lock_bits'
p490
S'0x2F'
p491
sS'file'
p492
S'Caterina-Micro.hex'
p493
sS'path'
p494
S'caterina'
p495
sS'unlock_bits'
p496
S'0x3F'
p497
ssS'build'
p498
(dp499
S'core'
p500
S'arduino'
p501
sS'f_cpu'
p502
S'16000000L'
p503
sS'vid'
p504
S'0x2341'
p505
sS'pid'
p506
S'0x8037'
p507
sS'variant'
p508
S'micro'
p509
sS'mcu'
p510
S'atmega32u4'
p511
ssS'name'
p512
S'Arduino Micro'
p513
sS'upload'
p514
(dp515
S'protocol'
p516
S'avr109'
p517
sS'maximum_size'
p518
S'28672'
p519
sS'speed'
p520
S'57600'
p521
sS'disable_flushing'
p522
S'true'
p523
ssaa(lp524
S'mini328'
p525
a(dp526
g108
S'/usr/share/arduino/hardware/arduino'
p527
sS'bootloader'
p528
(dp529
S'extended_fuses'
p530
S'0x05'
p531
sS'high_fuses'
p532
S'0xd8'
p533
sS'low_fuses'
p534
S'0xff'
p535
sS'lock_bits'
p536
S'0x0F'
p537
sS'file'
p538
S'optiboot_atmega328-Mini.hex'
p539
sS'path'
p540
S'optiboot'
p541
sS'unlock_bits'
p542
S'0x3F'
p543
ssS'build'
p544
(dp545
S'core'
p546
S'arduino'
p547
sS'mcu'
p548
S'atmega328p'
p549
sS'f_cpu'
p550
S'16000000L'
p551
sS'variant'
p552
S'eightanaloginputs'
p553
ssS'name'
p554
S'Arduino Mini w/ ATmega328'
p555
sS'upload'
p556
(dp557
S'protocol'
p558
S'arduino'
p559
sS'maximum_size'
p560
S'28672'
p561
sS'speed'
p562
S'115200'
p563
ssaa(lp564
S'mini'
p565
a(dp566
g108
S'/usr/share/arduino/hardware/arduino'
p567
sS'bootloader'
p568
(dp569
S'extended_fuses'
p570
S'0x00'
p571
sS'high_fuses'
p572
S'0xdd'
p573
sS'low_fuses'
p574
S'0xff'
p575
sS'lock_bits'
p576
S'0x0F'
p577
sS'file'
p578
S'ATmegaBOOT_168_ng.hex'
p579
sS'path'
p580
S'atmega'
p581
sS'unlock_bits'
p582
S'0x3F'
p583
ssS'build'
p584
(dp585
S'core'
p586
S'arduino'
p587
sS'mcu'
p588
S'atmega168'
p589
sS'f_cpu'
p590
S'16000000L'
p591
sS'variant'
p592
S'eightanaloginputs'
p593
ssS'name'
p594
S'Arduino Mini w/ ATmega168'
p595
sS'upload'
p596
(dp597
S'protocol'
p598
S'arduino'
p599
sS'maximum_size'
p600
S'14336'
p601
sS'speed'
p602
S'19200'
p603
ssaa(lp604
S'ethernet'
p605
a(dp606
g108
S'/usr/share/arduino/hardware/arduino'
p607
sS'bootloader'
p608
(dp609
S'extended_fuses'
p610
S'0x05'
p611
sS'high_fuses'
p612
S'0xde'
p613
sS'low_fuses'
p614
S'0xff'
p615
sS'lock_bits'
p616
S'0x0F'
p617
sS'file'
p618
S'optiboot_atmega328.hex'
p619
sS'path'
p620
S'optiboot'
p621
sS'unlock_bits'
p622
S'0x3F'
p623
ssS'build'
p624
(dp625
S'variant'
p626
S'standard'
p627
sS'mcu'
p628
S'atmega328p'
p629
sS'f_cpu'
p630
S'16000000L'
p631
sS'core'
p632
S'arduino'
p633
ssS'name'
p634
S'Arduino Ethernet'
p635
sS'upload'
p636
(dp637
S'protocol'
p638
S'arduino'
p639
sS'maximum_size'
p640
S'32256'
p641
sS'speed'
p642
S'115200'
p643
ssaa(lp644
S'fio'
p645
a(dp646
g108
S'/usr/share/arduino/hardware/arduino'
p647
sS'bootloader'
p648
(dp649
S'extended_fuses'
p650
S'0x05'
p651
sS'high_fuses'
p652
S'0xDA'
p653
sS'low_fuses'
p654
S'0xFF'
p655
sS'lock_bits'
p656
S'0x0F'
p657
sS'file'
p658
S'ATmegaBOOT_168_atmega328_pro_8MHz.hex'
p659
sS'path'
p660
S'arduino:atmega'
p661
sS'unlock_bits'
p662
S'0x3F'
p663
ssS'build'
p664
(dp665
S'core'
p666
S'arduino'
p667
sS'mcu'
p668
S'atmega328p'
p669
sS'f_cpu'
p670
S'8000000L'
p671
sS'variant'
p672
S'eightanaloginputs'
p673
ssS'name'
p674
S'Arduino Fio'
p675
sS'upload'
p676
(dp677
S'protocol'
p678
S'arduino'
p679
sS'maximum_size'
p680
S'30720'
p681
sS'speed'
p682
S'57600'
p683
ssaa(lp684
S'bt328'
p685
a(dp686
g108
S'/usr/share/arduino/hardware/arduino'
p687
sS'bootloader'
p688
(dp689
S'extended_fuses'
p690
S'0x05'
p691
sS'high_fuses'
p692
S'0xd8'
p693
sS'low_fuses'
p694
S'0xff'
p695
sS'lock_bits'
p696
S'0x0F'
p697
sS'file'
p698
S'ATmegaBOOT_168_atmega328_bt.hex'
p699
sS'path'
p700
S'bt'
p701
sS'unlock_bits'
p702
S'0x3F'
p703
ssS'build'
p704
(dp705
S'core'
p706
S'arduino'
p707
sS'mcu'
p708
S'atmega328p'
p709
sS'f_cpu'
p710
S'16000000L'
p711
sS'variant'
p712
S'eightanaloginputs'
p713
ssS'name'
p714
S'Arduino BT w/ ATmega328'
p715
sS'upload'
p716
(dp717
S'protocol'
p718
S'arduino'
p719
sS'maximum_size'
p720
S'28672'
p721
sS'speed'
p722
S'19200'
p723
sS'disable_flushing'
p724
S'true'
p725
ssaa(lp726
S'bt'
p727
a(dp728
g108
S'/usr/share/arduino/hardware/arduino'
p729
sS'bootloader'
p730
(dp731
S'extended_fuses'
p732
S'0x00'
p733
sS'high_fuses'
p734
S'0xdd'
p735
sS'low_fuses'
p736
S'0xff'
p737
sS'lock_bits'
p738
S'0x0F'
p739
sS'file'
p740
S'ATmegaBOOT_168.hex'
p741
sS'path'
p742
S'bt'
p743
sS'unlock_bits'
p744
S'0x3F'
p745
ssS'build'
p746
(dp747
S'core'
p748
S'arduino'
p749
sS'mcu'
p750
S'atmega168'
p751
sS'f_cpu'
p752
S'16000000L'
p753
sS'variant'
p754
S'eightanaloginputs'
p755
ssS'name'
p756
S'Arduino BT w/ ATmega168'
p757
sS'upload'
p758
(dp759
S'protocol'
p760
S'arduino'
p761
sS'maximum_size'
p762
S'14336'
p763
sS'speed'
p764
S'19200'
p765
sS'disable_flushing'
p766
S'true'
p767
ssaa(lp768
S'LilyPadUSB'
p769
a(dp770
g108
S'/usr/share/arduino/hardware/arduino'
p771
sS'bootloader'
p772
(dp773
S'extended_fuses'
p774
S'0xce'
p775
sS'high_fuses'
p776
S'0xd8'
p777
sS'low_fuses'
p778
S'0xff'
p779
sS'lock_bits'
p780
S'0x2F'
p781
sS'file'
p782
S'Caterina-LilyPadUSB.hex'
p783
sS'path'
p784
S'caterina-LilyPadUSB'
p785
sS'unlock_bits'
p786
S'0x3F'
p787
ssS'build'
p788
(dp789
S'core'
p790
S'arduino'
p791
sS'f_cpu'
p792
S'8000000L'
p793
sS'vid'
p794
S'0x1B4F'
p795
sS'pid'
p796
S'0x9208'
p797
sS'variant'
p798
S'leonardo'
p799
sS'mcu'
p800
S'atmega32u4'
p801
ssS'name'
p802
S'LilyPad Arduino USB'
p803
sS'upload'
p804
(dp805
S'protocol'
p806
S'avr109'
p807
sS'maximum_size'
p808
S'28672'
p809
sS'speed'
p810
S'57600'
p811
sS'disable_flushing'
p812
S'true'
p813
ssaa(lp814
S'lilypad328'
p815
a(dp816
g108
S'/usr/share/arduino/hardware/arduino'
p817
sS'bootloader'
p818
(dp819
S'extended_fuses'
p820
S'0x05'
p821
sS'high_fuses'
p822
S'0xDA'
p823
sS'low_fuses'
p824
S'0xFF'
p825
sS'lock_bits'
p826
S'0x0F'
p827
sS'file'
p828
S'ATmegaBOOT_168_atmega328_pro_8MHz.hex'
p829
sS'path'
p830
S'atmega'
p831
sS'unlock_bits'
p832
S'0x3F'
p833
ssS'build'
p834
(dp835
S'core'
p836
S'arduino'
p837
sS'mcu'
p838
S'atmega328p'
p839
sS'f_cpu'
p840
S'8000000L'
p841
sS'variant'
p842
S'standard'
p843
ssS'name'
p844
S'LilyPad Arduino w/ ATmega328'
p845
sS'upload'
p846
(dp847
S'protocol'
p848
S'arduino'
p849
sS'maximum_size'
p850
S'30720'
p851
sS'speed'
p852
S'57600'
p853
ssaa(lp854
S'lilypad'
p855
a(dp856
g108
S'/usr/share/arduino/hardware/arduino'
p857
sS'bootloader'
p858
(dp859
S'extended_fuses'
p860
S'0x00'
p861
sS'high_fuses'
p862
S'0xdd'
p863
sS'low_fuses'
p864
S'0xe2'
p865
sS'lock_bits'
p866
S'0x0F'
p867
sS'file'
p868
S'LilyPadBOOT_168.hex'
p869
sS'path'
p870
S'lilypad'
p871
sS'unlock_bits'
p872
S'0x3F'
p873
ssS'build'
p874
(dp875
S'core'
p876
S'arduino'
p877
sS'mcu'
p878
S'atmega168'
p879
sS'f_cpu'
p880
S'8000000L'
p881
sS'variant'
p882
S'standard'
p883
ssS'name'
p884
S'LilyPad Arduino w/ ATmega168'
p885
sS'upload'
p886
(dp887
S'protocol'
p888
S'arduino'
p889
sS'maximum_size'
p890
S'14336'
p891
sS'speed'
p892
S'19200'
p893
ssaa(lp894
S'pro5v328'
p895
a(dp896
g108
S'/usr/share/arduino/hardware/arduino'
p897
sS'bootloader'
p898
(dp899
S'extended_fuses'
p900
S'0x05'
p901
sS'high_fuses'
p902
S'0xDA'
p903
sS'low_fuses'
p904
S'0xFF'
p905
sS'lock_bits'
p906
S'0x0F'
p907
sS'file'
p908
S'ATmegaBOOT_168_atmega328.hex'
p909
sS'path'
p910
S'atmega'
p911
sS'unlock_bits'
p912
S'0x3F'
p913
ssS'build'
p914
(dp915
S'core'
p916
S'arduino'
p917
sS'mcu'
p918
S'atmega328p'
p919
sS'f_cpu'
p920
S'16000000L'
p921
sS'variant'
p922
S'standard'
p923
ssS'name'
p924
S'Arduino Pro or Pro Mini (5V, 16 MHz) w/ ATmega328'
p925
sS'upload'
p926
(dp927
S'protocol'
p928
S'arduino'
p929
sS'maximum_size'
p930
S'30720'
p931
sS'speed'
p932
S'57600'
p933
ssaa(lp934
S'pro5v'
p935
a(dp936
g108
S'/usr/share/arduino/hardware/arduino'
p937
sS'bootloader'
p938
(dp939
S'extended_fuses'
p940
S'0x00'
p941
sS'high_fuses'
p942
S'0xdd'
p943
sS'low_fuses'
p944
S'0xff'
p945
sS'lock_bits'
p946
S'0x0F'
p947
sS'file'
p948
S'ATmegaBOOT_168_diecimila.hex'
p949
sS'path'
p950
S'atmega'
p951
sS'unlock_bits'
p952
S'0x3F'
p953
ssS'build'
p954
(dp955
S'core'
p956
S'arduino'
p957
sS'mcu'
p958
S'atmega168'
p959
sS'f_cpu'
p960
S'16000000L'
p961
sS'variant'
p962
S'standard'
p963
ssS'name'
p964
S'Arduino Pro or Pro Mini (5V, 16 MHz) w/ ATmega168'
p965
sS'upload'
p966
(dp967
S'protocol'
p968
S'arduino'
p969
sS'maximum_size'
p970
S'14336'
p971
sS'speed'
p972
S'19200'
p973
ssaa(lp974
S'pro328'
p975
a(dp976
g108
S'/usr/share/arduino/hardware/arduino'
p977
sS'bootloader'
p978
(dp979
S'extended_fuses'
p980
S'0x05'
p981
sS'high_fuses'
p982
S'0xDA'
p983
sS'low_fuses'
p984
S'0xFF'
p985
sS'lock_bits'
p986
S'0x0F'
p987
sS'file'
p988
S'ATmegaBOOT_168_atmega328_pro_8MHz.hex'
p989
sS'path'
p990
S'atmega'
p991
sS'unlock_bits'
p992
S'0x3F'
p993
ssS'build'
p994
(dp995
S'core'
p996
S'arduino'
p997
sS'mcu'
p998
S'atmega328p'
p999
sS'f_cpu'
p1000
S'8000000L'
p1001
sS'variant'
p1002
S'standard'
p1003
ssS'name'
p1004
S'Arduino Pro or Pro Mini (3.3V, 8 MHz) w/ ATmega328'
p1005
sS'upload'
p1006
(dp1007
S'protocol'
p1008
S'arduino'
p1009
sS'maximum_size'
p1010
S'30720'
p1011
sS'speed'
p1012
S'57600'
p1013
ssaa(lp1014
S'pro'
p1015
a(dp1016
g108
S'/usr/share/arduino/hardware/arduino'
p1017
sS'bootloader'
p1018
(dp1019
S'extended_fuses'
p1020
S'0x00'
p1021
sS'high_fuses'
p1022
S'0xdd'
p1023
sS'low_fuses'
p1024
S'0xc6'
p1025
sS'lock_bits'
p1026
S'0x0F'
p1027
sS'file'
p1028
S'ATmegaBOOT_168_pro_8MHz.hex'
p1029
sS'path'
p1030
S'atmega'
p1031
sS'unlock_bits'
p1032
S'0x3F'
p1033
ssS'build'
p1034
(dp1035
S'core'
p1036
S'arduino'
p1037
sS'mcu'
p1038
S'atmega168'
p1039
sS'f_cpu'
p1040
S'8000000L'
p1041
sS'variant'
p1042
S'standard'
p1043
ssS'name'
p1044
S'Arduino Pro or Pro Mini (3.3V, 8 MHz) w/ ATmega168'
p1045
sS'upload'
p1046
(dp1047
S'protocol'
p1048
S'arduino'
p1049
sS'maximum_size'
p1050
S'14336'
p1051
sS'speed'
p1052
S'19200'
p1053
ssaa(lp1054
S'atmega168'
p1055
a(dp1056
g108
S'/usr/share/arduino/hardware/arduino'
p1057
sS'bootloader'
p1058
(dp1059
S'extended_fuses'
p1060
S'0x00'
p1061
sS'high_fuses'
p1062
S'0xdd'
p1063
sS'low_fuses'
p1064
S'0xff'
p1065
sS'lock_bits'
p1066
S'0x0F'
p1067
sS'file'
p1068
S'ATmegaBOOT_168_ng.hex'
p1069
sS'path'
p1070
S'atmega'
p1071
sS'unlock_bits'
p1072
S'0x3F'
p1073
ssS'build'
p1074
(dp1075
S'core'
p1076
S'arduino'
p1077
sS'mcu'
p1078
S'atmega168'
p1079
sS'f_cpu'
p1080
S'16000000L'
p1081
sS'variant'
p1082
S'standard'
p1083
ssS'name'
p1084
S'Arduino NG or older w/ ATmega168'
p1085
sS'upload'
p1086
(dp1087
S'protocol'
p1088
S'arduino'
p1089
sS'maximum_size'
p1090
S'14336'
p1091
sS'speed'
p1092
S'19200'
p1093
ssaa(lp1094
S'atmega8'
p1095
a(dp1096
g108
S'/usr/share/arduino/hardware/arduino'
p1097
sS'bootloader'
p1098
(dp1099
S'high_fuses'
p1100
S'0xca'
p1101
sS'low_fuses'
p1102
S'0xdf'
p1103
sS'lock_bits'
p1104
S'0x0F'
p1105
sS'file'
p1106
S'ATmegaBOOT-prod-firmware-2009-11-07.hex'
p1107
sS'path'
p1108
S'atmega8'
p1109
sS'unlock_bits'
p1110
S'0x3F'
p1111
ssS'build'
p1112
(dp1113
S'core'
p1114
S'arduino'
p1115
sS'mcu'
p1116
S'atmega8'
p1117
sS'f_cpu'
p1118
S'16000000L'
p1119
sS'variant'
p1120
S'standard'
p1121
ssS'name'
p1122
S'Arduino NG or older w/ ATmega8'
p1123
sS'upload'
p1124
(dp1125
S'protocol'
p1126
S'arduino'
p1127
sS'maximum_size'
p1128
S'7168'
p1129
sS'speed'
p1130
S'19200'
p1131
ssaa(lp1132
S'robotControl'
p1133
a(dp1134
g108
S'/usr/share/arduino/hardware/arduino'
p1135
sS'bootloader'
p1136
(dp1137
S'extended_fuses'
p1138
S'0xcb'
p1139
sS'high_fuses'
p1140
S'0xd8'
p1141
sS'low_fuses'
p1142
S'0xff'
p1143
sS'lock_bits'
p1144
S'0x2F'
p1145
sS'file'
p1146
S'Caterina-Robot-Control.hex'
p1147
sS'path'
p1148
S'caterina-Arduino_Robot'
p1149
sS'unlock_bits'
p1150
S'0x3F'
p1151
ssS'build'
p1152
(dp1153
S'core'
p1154
S'robot'
p1155
sS'f_cpu'
p1156
S'16000000L'
p1157
sS'vid'
p1158
S'0x2341'
p1159
sS'pid'
p1160
S'0x8038'
p1161
sS'variant'
p1162
S'robot_control'
p1163
sS'mcu'
p1164
S'atmega32u4'
p1165
ssS'name'
p1166
S'Arduino Robot Control'
p1167
sS'upload'
p1168
(dp1169
S'protocol'
p1170
S'avr109'
p1171
sS'maximum_size'
p1172
S'28672'
p1173
sS'speed'
p1174
S'57600'
p1175
sS'disable_flushing'
p1176
S'true'
p1177
ssaa(lp1178
S'robotMotor'
p1179
a(dp1180
g108
S'/usr/share/arduino/hardware/arduino'
p1181
sS'bootloader'
p1182
(dp1183
S'extended_fuses'
p1184
S'0xcb'
p1185
sS'high_fuses'
p1186
S'0xd8'
p1187
sS'low_fuses'
p1188
S'0xff'
p1189
sS'lock_bits'
p1190
S'0x2F'
p1191
sS'file'
p1192
S'Caterina-Robot-Motor.hex'
p1193
sS'path'
p1194
S'caterina-Arduino_Robot'
p1195
sS'unlock_bits'
p1196
S'0x3F'
p1197
ssS'build'
p1198
(dp1199
S'core'
p1200
S'robot'
p1201
sS'f_cpu'
p1202
S'16000000L'
p1203
sS'vid'
p1204
S'0x2341'
p1205
sS'pid'
p1206
S'0x8039'
p1207
sS'variant'
p1208
S'robot_motor'
p1209
sS'mcu'
p1210
S'atmega32u4'
p1211
ssS'name'
p1212
S'Arduino Robot Motor'
p1213
sS'upload'
p1214
(dp1215
S'protocol'
p1216
S'avr109'
p1217
sS'maximum_size'
p1218
S'28672'
p1219
sS'speed'
p1220
S'57600'
p1221
sS'disable_flushing'
p1222
S'true'
p1223
ssaatp1224
Rp1225
(dp1226
S'default'
p1227
S'uno'
p1228
sbtp1229
a(S'ldflags'
p1230
g2
(g3
g4
(lp1231
g6
aS'-Wl,-Os'
p1232
aS'-Wl,--gc-sections'
p1233
atp1234
Rp1235
tp1236
a.